; Function Attrs: mustprogress uwtable
define void @_ZN4cvc58internal12SolverEngine8shutdownEv(ptr noundef nonnull readonly align 8 captures(none) dereferenceable(296) %0) local_unnamed_addr #4 align 2 {
  %2 = getelementptr inbounds nuw i8, ptr %0, i64 24
  %3 = load ptr, ptr %2, align 8, !tbaa !146
  tail call void @_ZN4cvc58internal3smt14ContextManager8shutdownEv(ptr noundef nonnull align 8 dereferenceable(61) %3)
  %4 = getelementptr inbounds nuw i8, ptr %0, i64 8
  %5 = load ptr, ptr %4, align 8, !tbaa !128
  tail call void @_ZN4cvc58internal3Env8shutdownEv(ptr noundef nonnull align 8 dereferenceable(696) %5)
  ret void
}